
003.arm:     file format elf64-littleaarch64


Disassembly of section .text:

0000000000400078 <_start>:
  400078:	3200e001 	orr	w1, w0, #0x11111111
  40007c:	3203e002 	orr	w2, w0, #0x22222222
  400080:	3200e403 	orr	w3, w0, #0x33333333
  400084:	3202e004 	orr	w4, w0, #0x44444444
  400088:	3200f005 	orr	w5, w0, #0x55555555
  40008c:	3203e406 	orr	w6, w0, #0x66666666
  400090:	3200e807 	orr	w7, w0, #0x77777777
  400094:	3201e008 	orr	w8, w0, #0x88888888
  400098:	3201e409 	orr	w9, w0, #0x99999999
  40009c:	3201f00a 	orr	w10, w0, #0xaaaaaaaa
  4000a0:	3201e80b 	orr	w11, w0, #0xbbbbbbbb
  4000a4:	3202e40c 	orr	w12, w0, #0xcccccccc
  4000a8:	3202e80d 	orr	w13, w0, #0xdddddddd
  4000ac:	3203e80e 	orr	w14, w0, #0xeeeeeeee
  4000b0:	3200000f 	orr	w15, w0, #0x1
  4000b4:	32007810 	orr	w16, w0, #0x7fffffff
  4000b8:	320b5011 	orr	w17, w0, #0xffe003ff
  4000bc:	32008012 	orr	w18, w0, #0x10001
  4000c0:	3200b813 	orr	w19, w0, #0x7fff7fff
  4000c4:	3200c014 	orr	w20, w0, #0x1010101
  4000c8:	3200d815 	orr	w21, w0, #0x7f7f7f7f
  4000cc:	b2400016 	orr	x22, x0, #0x1
  4000d0:	b240f817 	orr	x23, x0, #0x7fffffffffffffff
  4000d4:	b2624818 	orr	x24, x0, #0x1ffffc0000000
  4000d8:	b2007819 	orr	x25, x0, #0x7fffffff7fffffff
  4000dc:	b200801a 	orr	x26, x0, #0x1000100010001
  4000e0:	b2079c1b 	orr	x27, x0, #0xfe01fe01fe01fe01
  4000e4:	b200d01c 	orr	x28, x0, #0x1f1f1f1f1f1f1f1f
  4000e8:	b202e41d 	orr	x29, x0, #0xcccccccccccccccc
  4000ec:	b200f01e 	orr	x30, x0, #0x5555555555555555
  4000f0:	b201f01f 	orr	sp, x0, #0xaaaaaaaaaaaaaaaa
  4000f4:	d65f03c0 	ret
